; Function Attrs: inlinehint nounwind uwtable
define internal fastcc i32 @Psr_NtkAddConcat(ptr noundef captures(none) %0, ptr noundef readonly captures(none) %1) unnamed_addr #2 {
  %3 = getelementptr inbounds nuw i8, ptr %0, i64 176
  %4 = getelementptr i8, ptr %0, i64 180
  %.val8 = load i32, ptr %4, align 4, !tbaa !3
  %5 = and i32 %.val8, 1
  %.not = icmp eq i32 %5, 0
  br i1 %.not, label %6, label %36

6:                                                ; preds = %2
  %7 = load i32, ptr %3, align 8, !tbaa !10
  %8 = icmp eq i32 %.val8, %7
  br i1 %8, label %9, label %.Vec_IntGrow.exit10_crit_edge.i

.Vec_IntGrow.exit10_crit_edge.i:                  ; preds = %6
  %.phi.trans.insert.i = getelementptr inbounds nuw i8, ptr %0, i64 184
  %.pre.i = load ptr, ptr %.phi.trans.insert.i, align 8, !tbaa !11
  br label %Vec_IntPush.exit

9:                                                ; preds = %6
  %10 = icmp slt i32 %.val8, 16
  br i1 %10, label %11, label %19

11:                                               ; preds = %9
  %12 = getelementptr inbounds nuw i8, ptr %0, i64 184
  %13 = load ptr, ptr %12, align 8, !tbaa !11
  %.not9.i.i = icmp eq ptr %13, null
  br i1 %.not9.i.i, label %16, label %14

14:                                               ; preds = %11
  %15 = tail call dereferenceable_or_null(64) ptr @realloc(ptr noundef nonnull %13, i64 noundef 64) #18
  br label %Vec_IntGrow.exit.i

16:                                               ; preds = %11
  %17 = tail call noalias dereferenceable_or_null(64) ptr @malloc(i64 noundef 64) #19
  br label %Vec_IntGrow.exit.i

Vec_IntGrow.exit.i:                               ; preds = %16, %14
  %18 = phi ptr [ %15, %14 ], [ %17, %16 ]
  store ptr %18, ptr %12, align 8, !tbaa !11
  store i32 16, ptr %3, align 8, !tbaa !10
  br label %Vec_IntPush.exit

19:                                               ; preds = %9
  %20 = shl nuw nsw i32 %.val8, 1
  %21 = getelementptr inbounds nuw i8, ptr %0, i64 184
  %22 = load ptr, ptr %21, align 8, !tbaa !11
  %.not9.i9.i = icmp eq ptr %22, null
  %23 = zext nneg i32 %20 to i64
  %24 = shl nuw nsw i64 %23, 2
  br i1 %.not9.i9.i, label %27, label %25

25:                                               ; preds = %19
  %26 = tail call ptr @realloc(ptr noundef nonnull %22, i64 noundef %24) #18
  br label %29

27:                                               ; preds = %19
  %28 = tail call noalias ptr @malloc(i64 noundef %24) #19
  br label %29

29:                                               ; preds = %27, %25
  %30 = phi ptr [ %26, %25 ], [ %28, %27 ]
  store ptr %30, ptr %21, align 8, !tbaa !11
  store i32 %20, ptr %3, align 8, !tbaa !10
  br label %Vec_IntPush.exit

Vec_IntPush.exit:                                 ; preds = %.Vec_IntGrow.exit10_crit_edge.i, %Vec_IntGrow.exit.i, %29
  %31 = phi ptr [ %.pre.i, %.Vec_IntGrow.exit10_crit_edge.i ], [ %30, %29 ], [ %18, %Vec_IntGrow.exit.i ]
  %32 = load i32, ptr %4, align 4, !tbaa !3
  %33 = add nsw i32 %32, 1
  store i32 %33, ptr %4, align 4, !tbaa !3
  %34 = sext i32 %32 to i64
  %35 = getelementptr inbounds i32, ptr %31, i64 %34
  store i32 -1, ptr %35, align 4, !tbaa !12
  %.val7.pr = load i32, ptr %4, align 4, !tbaa !3
  br label %36

36:                                               ; preds = %Vec_IntPush.exit, %2
  %.val7 = phi i32 [ %.val7.pr, %Vec_IntPush.exit ], [ %.val8, %2 ]
  %37 = getelementptr i8, ptr %1, i64 4
  %.val = load i32, ptr %37, align 4, !tbaa !3
  %38 = load i32, ptr %3, align 8, !tbaa !10
  %39 = icmp eq i32 %.val7, %38
  br i1 %39, label %40, label %.Vec_IntGrow.exit10_crit_edge.i9

.Vec_IntGrow.exit10_crit_edge.i9:                 ; preds = %36
  %.phi.trans.insert.i10 = getelementptr inbounds nuw i8, ptr %0, i64 184
  %.pre.i11 = load ptr, ptr %.phi.trans.insert.i10, align 8, !tbaa !11
  br label %Vec_IntPush.exit15

40:                                               ; preds = %36
  %41 = icmp slt i32 %.val7, 16
  br i1 %41, label %42, label %50

42:                                               ; preds = %40
  %43 = getelementptr inbounds nuw i8, ptr %0, i64 184
  %44 = load ptr, ptr %43, align 8, !tbaa !11
  %.not9.i.i13 = icmp eq ptr %44, null
  br i1 %.not9.i.i13, label %47, label %45

45:                                               ; preds = %42
  %46 = tail call dereferenceable_or_null(64) ptr @realloc(ptr noundef nonnull %44, i64 noundef 64) #18
  br label %Vec_IntGrow.exit.i14

47:                                               ; preds = %42
  %48 = tail call noalias dereferenceable_or_null(64) ptr @malloc(i64 noundef 64) #19
  br label %Vec_IntGrow.exit.i14

Vec_IntGrow.exit.i14:                             ; preds = %47, %45
  %49 = phi ptr [ %46, %45 ], [ %48, %47 ]
  store ptr %49, ptr %43, align 8, !tbaa !11
  store i32 16, ptr %3, align 8, !tbaa !10
  br label %Vec_IntPush.exit15

50:                                               ; preds = %40
  %51 = shl nuw nsw i32 %.val7, 1
  %52 = getelementptr inbounds nuw i8, ptr %0, i64 184
  %53 = load ptr, ptr %52, align 8, !tbaa !11
  %.not9.i9.i12 = icmp eq ptr %53, null
  %54 = zext nneg i32 %51 to i64
  %55 = shl nuw nsw i64 %54, 2
  br i1 %.not9.i9.i12, label %58, label %56

56:                                               ; preds = %50
  %57 = tail call ptr @realloc(ptr noundef nonnull %53, i64 noundef %55) #18
  br label %60

58:                                               ; preds = %50
  %59 = tail call noalias ptr @malloc(i64 noundef %55) #19
  br label %60

60:                                               ; preds = %58, %56
  %61 = phi ptr [ %57, %56 ], [ %59, %58 ]
  store ptr %61, ptr %52, align 8, !tbaa !11
  store i32 %51, ptr %3, align 8, !tbaa !10
  br label %Vec_IntPush.exit15

Vec_IntPush.exit15:                               ; preds = %.Vec_IntGrow.exit10_crit_edge.i9, %Vec_IntGrow.exit.i14, %60
  %62 = phi ptr [ %.pre.i11, %.Vec_IntGrow.exit10_crit_edge.i9 ], [ %61, %60 ], [ %49, %Vec_IntGrow.exit.i14 ]
  %63 = load i32, ptr %4, align 4, !tbaa !3
  %64 = add nsw i32 %63, 1
  store i32 %64, ptr %4, align 4, !tbaa !3
  %65 = sext i32 %63 to i64
  %66 = getelementptr inbounds i32, ptr %62, i64 %65
  store i32 %.val, ptr %66, align 4, !tbaa !12
  %.val7.i = load i32, ptr %37, align 4, !tbaa !3
  %67 = icmp sgt i32 %.val7.i, 0
  br i1 %67, label %.lr.ph.i, label %Vec_IntAppend.exit

.lr.ph.i:                                         ; preds = %Vec_IntPush.exit15
  %68 = getelementptr i8, ptr %1, i64 8
  %.phi.trans.insert.i.i = getelementptr inbounds nuw i8, ptr %0, i64 184
  br label %69

69:                                               ; preds = %Vec_IntPush.exit.i, %.lr.ph.i
  %70 = phi ptr [ %62, %.lr.ph.i ], [ %.pre.i.i17, %Vec_IntPush.exit.i ]
  %indvars.iv.i = phi i64 [ 0, %.lr.ph.i ], [ %indvars.iv.next.i, %Vec_IntPush.exit.i ]
  %.val6.i = load ptr, ptr %68, align 8, !tbaa !11
  %71 = getelementptr inbounds nuw i32, ptr %.val6.i, i64 %indvars.iv.i
  %72 = load i32, ptr %71, align 4, !tbaa !12
  %73 = load i32, ptr %4, align 4, !tbaa !3
  %74 = load i32, ptr %3, align 8, !tbaa !10
  %75 = icmp eq i32 %73, %74
  br i1 %75, label %Vec_IntPush.exit.i.sink.split, label %Vec_IntPush.exit.i

Vec_IntPush.exit.i.sink.split:                    ; preds = %69
  %76 = icmp slt i32 %73, 16
  %77 = shl nuw nsw i32 %73, 1
  %78 = zext nneg i32 %77 to i64
  %79 = shl nuw nsw i64 %78, 2
  %.sink19 = select i1 %76, i64 64, i64 %79
  %.sink = select i1 %76, i32 16, i32 %77
  %80 = tail call ptr @realloc(ptr noundef nonnull %70, i64 noundef %.sink19) #18
  store ptr %80, ptr %.phi.trans.insert.i.i, align 8, !tbaa !11
  store i32 %.sink, ptr %3, align 8, !tbaa !10
  br label %Vec_IntPush.exit.i

Vec_IntPush.exit.i:                               ; preds = %Vec_IntPush.exit.i.sink.split, %69
  %.pre.i.i17 = phi ptr [ %70, %69 ], [ %80, %Vec_IntPush.exit.i.sink.split ]
  %81 = load i32, ptr %4, align 4, !tbaa !3
  %82 = add nsw i32 %81, 1
  store i32 %82, ptr %4, align 4, !tbaa !3
  %83 = sext i32 %81 to i64
  %84 = getelementptr inbounds i32, ptr %.pre.i.i17, i64 %83
  store i32 %72, ptr %84, align 4, !tbaa !12
  %indvars.iv.next.i = add nuw nsw i64 %indvars.iv.i, 1
  %.val.i = load i32, ptr %37, align 4, !tbaa !3
  %85 = sext i32 %.val.i to i64
  %86 = icmp slt i64 %indvars.iv.next.i, %85
  br i1 %86, label %69, label %Vec_IntAppend.exit, !llvm.loop !67

Vec_IntAppend.exit:                               ; preds = %Vec_IntPush.exit.i, %Vec_IntPush.exit15
  ret i32 %.val7
}